target datalayout = "e-m:e-p270:32:32-p271:32:32-p272:64:64-i64:64-i128:128-f80:128-n8:16:32:64-S128"
target triple = "x86_64-pc-linux-gnu"

%"class.llvm::StringRef" = type { ptr, i64 }
%"class.std::__cxx11::basic_string" = type { %"struct.std::__cxx11::basic_string<char>::_Alloc_hider", i64, %union.anon }
%"struct.std::__cxx11::basic_string<char>::_Alloc_hider" = type { ptr }
%union.anon = type { i64, [8 x i8] }
%"class.llvm::Triple" = type { %"class.std::__cxx11::basic_string", i32, i32, i32, i32, i32, i32 }
%"class.(anonymous namespace)::HWAddressSanitizer" = type { ptr, ptr, ptr, %"class.llvm::Triple", %"class.std::unique_ptr.180", %"struct.(anonymous namespace)::HWAddressSanitizer::ShadowMapping", ptr, ptr, ptr, ptr, ptr, ptr, i8, i8, i8, i8, i8, i8, i8, i8, i8, i8, i8, i8, %"class.std::optional.188", i32, i64, ptr, [2 x [5 x %"class.llvm::FunctionCallee"]], [2 x %"class.llvm::FunctionCallee"], %"class.llvm::FunctionCallee", %"class.llvm::FunctionCallee", %"class.llvm::FunctionCallee", %"class.llvm::FunctionCallee", %"class.llvm::FunctionCallee", %"class.llvm::FunctionCallee", %"class.llvm::FunctionCallee", ptr, ptr, ptr, ptr, ptr }
%"class.std::unique_ptr.180" = type { %"struct.std::__uniq_ptr_data.181" }
%"struct.std::__uniq_ptr_data.181" = type { %"class.std::__uniq_ptr_impl.182" }
%"class.std::__uniq_ptr_impl.182" = type { %"class.std::tuple.183" }
%"class.std::tuple.183" = type { %"struct.std::_Tuple_impl.184" }
%"struct.std::_Tuple_impl.184" = type { %"struct.std::_Head_base.187" }
%"struct.std::_Head_base.187" = type { ptr }
%"struct.(anonymous namespace)::HWAddressSanitizer::ShadowMapping" = type { i8, i64, i8, i8, i8 }
%"class.std::optional.188" = type { %"struct.std::_Optional_base.189" }
%"struct.std::_Optional_base.189" = type { %"struct.std::_Optional_payload.191" }
%"struct.std::_Optional_payload.191" = type { %"struct.std::_Optional_payload_base.192" }
%"struct.std::_Optional_payload_base.192" = type { %"union.std::_Optional_payload_base<unsigned char>::_Storage", i8 }
%"union.std::_Optional_payload_base<unsigned char>::_Storage" = type { %"struct.std::_Optional_payload_base<unsigned char>::_Empty_byte" }
%"struct.std::_Optional_payload_base<unsigned char>::_Empty_byte" = type { i8 }
%"class.llvm::FunctionCallee" = type { ptr, ptr }
%class.anon.252 = type { ptr }

@_ZL21kHwasanModuleCtorName = internal constant [19 x i8] c"hwasan.module_ctor\00", align 16

; Function Attrs: mustprogress nounwind uwtable
define linkonce_odr hidden noundef i64 @_ZNSt11char_traitsIcE6lengthEPKc(ptr noundef %0) #1 comdat align 2 {
  %2 = alloca ptr, align 8
  store ptr %0, ptr %2, align 8
  %3 = load ptr, ptr %2, align 8
  %4 = call i64 @strlen(ptr noundef %3) #2
  ret i64 %4
}

; Function Attrs: mustprogress nounwind uwtable
define linkonce_odr hidden void @_ZN4llvm9StringRefC2EPKc(ptr noundef nonnull align 8 dereferenceable(16) %0, ptr noundef %1) unnamed_addr #1 comdat align 2 {
  %3 = alloca ptr, align 8
  %4 = alloca ptr, align 8
  store ptr %0, ptr %3, align 8
  store ptr %1, ptr %4, align 8
  %5 = load ptr, ptr %3, align 8
  %6 = getelementptr inbounds nuw %"class.llvm::StringRef", ptr %5, i32 0, i32 0
  %7 = load ptr, ptr %4, align 8
  store ptr %7, ptr %6, align 8
  %8 = getelementptr inbounds nuw %"class.llvm::StringRef", ptr %5, i32 0, i32 1
  %9 = load ptr, ptr %4, align 8
  %10 = icmp ne ptr %9, null
  br i1 %10, label %11, label %14

11:                                               ; preds = %2
  %12 = load ptr, ptr %4, align 8
  %13 = call noundef i64 @_ZNSt11char_traitsIcE6lengthEPKc(ptr noundef %12)
  br label %15

14:                                               ; preds = %2
  br label %15

15:                                               ; preds = %14, %11
  %16 = phi i64 [ %13, %11 ], [ 0, %14 ]
  store i64 %16, ptr %8, align 8
  ret void
}

; Function Attrs: mustprogress nounwind uwtable
define internal void @"_ZZN12_GLOBAL__N_118HWAddressSanitizer22createHwasanCtorComdatEvENK3$_0clEPN4llvm8FunctionENS2_14FunctionCalleeE"(ptr noundef nonnull align 8 dereferenceable(8) %0, ptr noundef %1, ptr %2, ptr %3) #1 align 2 {
  %5 = alloca %"class.llvm::FunctionCallee", align 8
  %6 = alloca ptr, align 8
  %7 = alloca ptr, align 8
  %8 = alloca ptr, align 8
  %9 = alloca %"class.llvm::StringRef", align 8
  %10 = getelementptr inbounds nuw { ptr, ptr }, ptr %5, i32 0, i32 0
  store ptr %2, ptr %10, align 8
  %11 = getelementptr inbounds nuw { ptr, ptr }, ptr %5, i32 0, i32 1
  store ptr %3, ptr %11, align 8
  store ptr %0, ptr %6, align 8
  store ptr %1, ptr %7, align 8
  %12 = load ptr, ptr %6, align 8
  %13 = getelementptr inbounds nuw %class.anon.252, ptr %12, i32 0, i32 0
  %14 = load ptr, ptr %13, align 8
  %15 = getelementptr inbounds nuw %"class.(anonymous namespace)::HWAddressSanitizer", ptr %14, i32 0, i32 1
  %16 = load ptr, ptr %15, align 8
  call void @_ZN4llvm9StringRefC2EPKc(ptr noundef nonnull align 8 dereferenceable(16) %9, ptr noundef @_ZL21kHwasanModuleCtorName)
  %17 = getelementptr inbounds nuw { ptr, i64 }, ptr %9, i32 0, i32 0
  %18 = load ptr, ptr %17, align 8
  %19 = getelementptr inbounds nuw { ptr, i64 }, ptr %9, i32 0, i32 1
  %20 = load i64, ptr %19, align 8
  %21 = call noundef ptr @_ZN4llvm6Module17getOrInsertComdatENS_9StringRefE(ptr noundef nonnull align 8 dereferenceable(857) %16, ptr %18, i64 %20)
  store ptr %21, ptr %8, align 8
  %22 = load ptr, ptr %7, align 8
  %23 = load ptr, ptr %8, align 8
  call void @_ZN4llvm12GlobalObject9setComdatEPNS_6ComdatE(ptr noundef nonnull align 8 dereferenceable(56) %22, ptr noundef %23)
  %24 = getelementptr inbounds nuw %"class.(anonymous namespace)::HWAddressSanitizer", ptr %14, i32 0, i32 1
  %25 = load ptr, ptr %24, align 8
  %26 = load ptr, ptr %7, align 8
  %27 = load ptr, ptr %7, align 8
  call void @_ZN4llvm19appendToGlobalCtorsERNS_6ModuleEPNS_8FunctionEiPNS_8ConstantE(ptr noundef nonnull align 8 dereferenceable(857) %25, ptr noundef %26, i32 noundef 0, ptr noundef %27)
  ret void
}

; Function Attrs: mustprogress nounwind uwtable
define internal void @"_ZN4llvm12function_refIFvPNS_8FunctionENS_14FunctionCalleeEEE11callback_fnIZN12_GLOBAL__N_118HWAddressSanitizer22createHwasanCtorComdatEvE3$_0EEvlS2_S3_"(i64 noundef %0, ptr noundef %1, ptr %2, ptr %3) #1 align 2 {
  %5 = alloca %"class.llvm::FunctionCallee", align 8
  %6 = alloca i64, align 8
  %7 = alloca ptr, align 8
  %8 = alloca %"class.llvm::FunctionCallee", align 8
  %9 = getelementptr inbounds nuw { ptr, ptr }, ptr %5, i32 0, i32 0
  store ptr %2, ptr %9, align 8
  %10 = getelementptr inbounds nuw { ptr, ptr }, ptr %5, i32 0, i32 1
  store ptr %3, ptr %10, align 8
  store i64 %0, ptr %6, align 8
  store ptr %1, ptr %7, align 8
  %11 = load i64, ptr %6, align 8
  %12 = inttoptr i64 %11 to ptr
  %13 = load ptr, ptr %7, align 8
  call void @llvm.memcpy.p0.p0.i64(ptr align 8 %8, ptr align 8 %5, i64 16, i1 false)
  %14 = getelementptr inbounds nuw { ptr, ptr }, ptr %8, i32 0, i32 0
  %15 = load ptr, ptr %14, align 8
  %16 = getelementptr inbounds nuw { ptr, ptr }, ptr %8, i32 0, i32 1
  %17 = load ptr, ptr %16, align 8
  call void @"_ZZN12_GLOBAL__N_118HWAddressSanitizer22createHwasanCtorComdatEvENK3$_0clEPN4llvm8FunctionENS2_14FunctionCalleeE"(ptr noundef nonnull align 8 dereferenceable(8) %12, ptr noundef %13, ptr %15, ptr %17)
  ret void
}