; Function Attrs: mustprogress nounwind uwtable
define internal void @"_ZN4llvm12function_refIFvPNS_8FunctionENS_14FunctionCalleeEEE11callback_fnIZN12_GLOBAL__N_118HWAddressSanitizer22createHwasanCtorComdatEvE3$_0EEvlS2_S3_"(i64 noundef %0, ptr noundef %1, ptr nocapture readnone %2, ptr nocapture readnone %3) #0 align 2 {
  %5 = inttoptr i64 %0 to ptr
  %.val = load ptr, ptr %5, align 8
  %6 = getelementptr inbounds nuw i8, ptr %.val, i64 8
  %7 = load ptr, ptr %6, align 8
  %8 = tail call noundef ptr @_ZN4llvm6Module17getOrInsertComdatENS_9StringRefE(ptr noundef nonnull align 8 dereferenceable(857) %7, ptr nonnull @_ZL21kHwasanModuleCtorName, i64 18) #20
  tail call void @_ZN4llvm12GlobalObject9setComdatEPNS_6ComdatE(ptr noundef nonnull align 8 dereferenceable(56) %1, ptr noundef %8) #20
  %9 = load ptr, ptr %6, align 8
  tail call void @_ZN4llvm19appendToGlobalCtorsERNS_6ModuleEPNS_8FunctionEiPNS_8ConstantE(ptr noundef nonnull align 8 dereferenceable(857) %9, ptr noundef nonnull %1, i32 noundef 0, ptr noundef nonnull %1) #20
  ret void
}